; Function Attrs: inlinehint mustprogress uwtable
define internal fastcc void @_ZN5arrow7compute8internalL10LocateZoneERKNSt7__cxx1112basic_stringIcSt11char_traitsIcESaIcEEE(ptr dead_on_unwind noalias nonnull writable align 8 %0, ptr noundef nonnull align 8 dereferenceable(32) %1) unnamed_addr #11 personality ptr @__gxx_personality_v0 {
  %3 = alloca %"class.arrow::Status", align 8
  %4 = alloca ptr, align 8
  %5 = load ptr, ptr %1, align 8, !tbaa !144
  %6 = getelementptr inbounds nuw i8, ptr %1, i64 8
  %7 = load i64, ptr %6, align 8, !tbaa !145
  %8 = invoke noundef ptr @_ZN14arrow_vendored4date11locate_zoneESt17basic_string_viewIcSt11char_traitsIcEE(i64 %7, ptr %5)
          to label %9 unwind label %11

9:                                                ; preds = %2
  store ptr null, ptr %0, align 8, !tbaa !75
  %10 = getelementptr inbounds nuw i8, ptr %0, i64 8
  store ptr %8, ptr %10, align 8, !tbaa !238
  br label %31

11:                                               ; preds = %2
  %12 = landingpad { ptr, i32 }
          cleanup
          catch ptr @_ZTISt13runtime_error
  %13 = extractvalue { ptr, i32 } %12, 1
  %14 = tail call i32 @llvm.eh.typeid.for.p0(ptr nonnull @_ZTISt13runtime_error) #24
  %15 = icmp eq i32 %13, %14
  br i1 %15, label %16, label %32

16:                                               ; preds = %11
  %17 = extractvalue { ptr, i32 } %12, 0
  %18 = tail call ptr @__cxa_begin_catch(ptr %17) #24
  call void @llvm.lifetime.start.p0(i64 8, ptr nonnull %3) #24
  call void @llvm.lifetime.start.p0(i64 8, ptr nonnull %4) #24
  %19 = load ptr, ptr %18, align 8, !tbaa !46
  %20 = getelementptr inbounds nuw i8, ptr %19, i64 16
  %21 = load ptr, ptr %20, align 8
  %22 = tail call noundef ptr %21(ptr noundef nonnull align 8 dereferenceable(16) %18) #24
  store ptr %22, ptr %4, align 8, !tbaa !243
  invoke void @_ZN5arrow6Status8FromArgsIJRA25_KcRKNSt7__cxx1112basic_stringIcSt11char_traitsIcESaIcEEERA4_S2_PS2_EEES0_NS_10StatusCodeEDpOT_(ptr dead_on_unwind nonnull writable sret(%"class.arrow::Status") align 8 %3, i8 noundef signext 4, ptr noundef nonnull align 1 dereferenceable(25) @.str.18, ptr noundef nonnull align 8 dereferenceable(32) %1, ptr noundef nonnull align 1 dereferenceable(4) @.str.19, ptr noundef nonnull align 8 dereferenceable(8) %4)
          to label %_ZN5arrow6Status7InvalidIJRA25_KcRKNSt7__cxx1112basic_stringIcSt11char_traitsIcESaIcEEERA4_S2_PS2_EEES0_DpOT_.exit unwind label %29

_ZN5arrow6Status7InvalidIJRA25_KcRKNSt7__cxx1112basic_stringIcSt11char_traitsIcESaIcEEERA4_S2_PS2_EEES0_DpOT_.exit: ; preds = %16
  call void @_ZN5arrow6ResultIPKN14arrow_vendored4date9time_zoneEEC2ERKNS_6StatusE(ptr noundef nonnull align 8 dereferenceable(16) %0, ptr noundef nonnull align 8 dereferenceable(8) %3) #24
  %23 = load ptr, ptr %3, align 8, !tbaa !75
  %.not.i = icmp eq ptr %23, null
  br i1 %.not.i, label %_ZN5arrow6StatusD2Ev.exit, label %24, !prof !78

24:                                               ; preds = %_ZN5arrow6Status7InvalidIJRA25_KcRKNSt7__cxx1112basic_stringIcSt11char_traitsIcESaIcEEERA4_S2_PS2_EEES0_DpOT_.exit
  %25 = getelementptr inbounds nuw i8, ptr %23, i64 1
  %26 = load i8, ptr %25, align 1, !tbaa !79, !range !89, !noundef !90
  %27 = trunc nuw i8 %26 to i1
  br i1 %27, label %_ZN5arrow6StatusD2Ev.exit, label %28

28:                                               ; preds = %24
  call void @_ZN5arrow6Status11DeleteStateEv(ptr noundef nonnull align 8 dereferenceable(8) %3) #24
  br label %_ZN5arrow6StatusD2Ev.exit

_ZN5arrow6StatusD2Ev.exit:                        ; preds = %_ZN5arrow6Status7InvalidIJRA25_KcRKNSt7__cxx1112basic_stringIcSt11char_traitsIcESaIcEEERA4_S2_PS2_EEES0_DpOT_.exit, %24, %28
  call void @llvm.lifetime.end.p0(i64 8, ptr nonnull %4) #24
  call void @llvm.lifetime.end.p0(i64 8, ptr nonnull %3) #24
  call void @__cxa_end_catch()
  br label %31

29:                                               ; preds = %16
  %30 = landingpad { ptr, i32 }
          cleanup
  call void @llvm.lifetime.end.p0(i64 8, ptr nonnull %4) #24
  call void @llvm.lifetime.end.p0(i64 8, ptr nonnull %3) #24
  invoke void @__cxa_end_catch()
          to label %32 unwind label %33

31:                                               ; preds = %_ZN5arrow6StatusD2Ev.exit, %9
  ret void

32:                                               ; preds = %29, %11
  %.merged = phi { ptr, i32 } [ %12, %11 ], [ %30, %29 ]
  resume { ptr, i32 } %.merged

33:                                               ; preds = %29
  %34 = landingpad { ptr, i32 }
          catch ptr null
  %35 = extractvalue { ptr, i32 } %34, 0
  call void @__clang_call_terminate(ptr %35) #27
  unreachable
}